target datalayout = "e-m:e-p270:32:32-p271:32:32-p272:64:64-i64:64-i128:128-f80:128-n8:16:32:64-S128"
target triple = "x86_64-pc-linux-gnu"

@.str.15 = private unnamed_addr constant [14 x i8] c"FOR KEY SHARE\00", align 1
@.str.16 = private unnamed_addr constant [10 x i8] c"FOR SHARE\00", align 1
@.str.17 = private unnamed_addr constant [18 x i8] c"FOR NO KEY UPDATE\00", align 1
@.str.18 = private unnamed_addr constant [11 x i8] c"FOR UPDATE\00", align 1
@.str.19 = private unnamed_addr constant [9 x i8] c"FOR some\00", align 1

; Function Attrs: nounwind uwtable
define dso_local ptr @LCS_asString(i32 noundef %0) #0 {
  %2 = alloca ptr, align 8
  %3 = alloca i32, align 4
  store i32 %0, ptr %3, align 4
  %4 = load i32, ptr %3, align 4
  switch i32 %4, label %10 [
    i32 0, label %5
    i32 1, label %6
    i32 2, label %7
    i32 3, label %8
    i32 4, label %9
  ]

5:                                                ; preds = %1
  br label %10

6:                                                ; preds = %1
  store ptr @.str.15, ptr %2, align 8
  br label %11

7:                                                ; preds = %1
  store ptr @.str.16, ptr %2, align 8
  br label %11

8:                                                ; preds = %1
  store ptr @.str.17, ptr %2, align 8
  br label %11

9:                                                ; preds = %1
  store ptr @.str.18, ptr %2, align 8
  br label %11

10:                                               ; preds = %1, %5
  store ptr @.str.19, ptr %2, align 8
  br label %11

11:                                               ; preds = %10, %9, %8, %7, %6
  %12 = load ptr, ptr %2, align 8
  ret ptr %12
}